; ModuleID = 'source-C-CXX/26/1269.c'
source_filename = "source-C-CXX/26/1269.c"
target datalayout = "e-m:e-p270:32:32-p271:32:32-p272:64:64-i64:64-f80:128-n8:16:32:64-S128"
target triple = "x86_64-pc-linux-gnu"

@.str = private unnamed_addr constant [3 x i8] c"%d\00", align 1
@.str.1 = private unnamed_addr constant [12 x i8] c"%lf %lf %lf\00", align 1
@.str.2 = private unnamed_addr constant [17 x i8] c"x1=%.5f;x2=%.5f\0A\00", align 1
@.str.3 = private unnamed_addr constant [12 x i8] c"x1=x2=%.5f\0A\00", align 1
@.str.4 = private unnamed_addr constant [29 x i8] c"x1=%.5f+%.5fi;x2=%.5f-%.5fi\0A\00", align 1

; Function Attrs: nofree nounwind sspstrong uwtable
define dso_local i32 @main(i32 %0, i8** nocapture readnone %1) local_unnamed_addr #0 {
  %3 = alloca i32, align 4
  %4 = alloca double, align 8
  %5 = alloca double, align 8
  %6 = alloca double, align 8
  %7 = bitcast i32* %3 to i8*
  call void @llvm.lifetime.start.p0i8(i64 4, i8* nonnull %7) #4
  %8 = call i32 (i8*, ...) @__isoc99_scanf(i8* getelementptr inbounds ([3 x i8], [3 x i8]* @.str, i64 0, i64 0), i32* nonnull %3)
  %9 = bitcast double* %4 to i8*
  %10 = bitcast double* %5 to i8*
  %11 = bitcast double* %6 to i8*
  %12 = load i32, i32* %3, align 4, !tbaa !5
  %13 = icmp sgt i32 %12, 0
  br i1 %13, label %15, label %14

14:                                               ; preds = %78, %2
  call void @llvm.lifetime.end.p0i8(i64 4, i8* nonnull %7) #4
  ret i32 0

15:                                               ; preds = %2, %78
  %16 = phi i32 [ %79, %78 ], [ 0, %2 ]
  call void @llvm.lifetime.start.p0i8(i64 8, i8* nonnull %9) #4
  call void @llvm.lifetime.start.p0i8(i64 8, i8* nonnull %10) #4
  call void @llvm.lifetime.start.p0i8(i64 8, i8* nonnull %11) #4
  %17 = call i32 (i8*, ...) @__isoc99_scanf(i8* getelementptr inbounds ([12 x i8], [12 x i8]* @.str.1, i64 0, i64 0), double* nonnull %4, double* nonnull %5, double* nonnull %6)
  %18 = load double, double* %5, align 8, !tbaa !9
  %19 = fmul double %18, %18
  %20 = load double, double* %4, align 8, !tbaa !9
  %21 = fmul double %20, 4.000000e+00
  %22 = load double, double* %6, align 8, !tbaa !9
  %23 = fmul double %21, %22
  %24 = fsub double %19, %23
  %25 = fcmp ogt double %24, 0.000000e+00
  br i1 %25, label %26, label %45

26:                                               ; preds = %15
  %27 = call double @sqrt(double %24) #4
  %28 = fsub double %27, %18
  %29 = load double, double* %4, align 8, !tbaa !9
  %30 = fmul double %29, 2.000000e+00
  %31 = fdiv double %28, %30
  %32 = load double, double* %5, align 8, !tbaa !9
  %33 = fneg double %32
  %34 = fmul double %32, %32
  %35 = fmul double %29, 4.000000e+00
  %36 = load double, double* %6, align 8, !tbaa !9
  %37 = fmul double %35, %36
  %38 = fsub double %34, %37
  %39 = call double @sqrt(double %38) #4
  %40 = fsub double %33, %39
  %41 = load double, double* %4, align 8, !tbaa !9
  %42 = fmul double %41, 2.000000e+00
  %43 = fdiv double %40, %42
  %44 = call i32 (i8*, ...) @printf(i8* nonnull dereferenceable(1) getelementptr inbounds ([17 x i8], [17 x i8]* @.str.2, i64 0, i64 0), double %31, double %43)
  br label %78

45:                                               ; preds = %15
  %46 = fcmp oeq double %24, 0.000000e+00
  br i1 %46, label %47, label %64

47:                                               ; preds = %45
  %48 = call double @sqrt(double %24) #4
  %49 = fsub double %48, %18
  %50 = load double, double* %4, align 8, !tbaa !9
  %51 = fmul double %50, 2.000000e+00
  %52 = fdiv double %49, %51
  %53 = load double, double* %5, align 8, !tbaa !9
  %54 = fmul double %53, %53
  %55 = fmul double %50, 4.000000e+00
  %56 = load double, double* %6, align 8, !tbaa !9
  %57 = fmul double %55, %56
  %58 = fsub double %54, %57
  %59 = fcmp olt double %58, 0.000000e+00
  br i1 %59, label %60, label %62, !prof !11

60:                                               ; preds = %47
  %61 = call double @sqrt(double %58) #4
  br label %62

62:                                               ; preds = %47, %60
  %63 = call i32 (i8*, ...) @printf(i8* nonnull dereferenceable(1) getelementptr inbounds ([12 x i8], [12 x i8]* @.str.3, i64 0, i64 0), double %52)
  br label %78

64:                                               ; preds = %45
  %65 = fcmp olt double %24, 0.000000e+00
  br i1 %65, label %66, label %78

66:                                               ; preds = %64
  %67 = fcmp une double %18, 0.000000e+00
  %68 = fneg double %18
  %69 = select i1 %67, double %68, double %18
  %70 = fmul double %20, 2.000000e+00
  %71 = fdiv double %69, %70
  %72 = fsub double %23, %19
  %73 = call double @sqrt(double %72) #4
  %74 = load double, double* %4, align 8, !tbaa !9
  %75 = fmul double %74, 2.000000e+00
  %76 = fdiv double %73, %75
  %77 = call i32 (i8*, ...) @printf(i8* nonnull dereferenceable(1) getelementptr inbounds ([29 x i8], [29 x i8]* @.str.4, i64 0, i64 0), double %71, double %76, double %71, double %76)
  br label %78

78:                                               ; preds = %62, %64, %66, %26
  call void @llvm.lifetime.end.p0i8(i64 8, i8* nonnull %11) #4
  call void @llvm.lifetime.end.p0i8(i64 8, i8* nonnull %10) #4
  call void @llvm.lifetime.end.p0i8(i64 8, i8* nonnull %9) #4
  %79 = add nuw nsw i32 %16, 1
  %80 = load i32, i32* %3, align 4, !tbaa !5
  %81 = icmp slt i32 %79, %80
  br i1 %81, label %15, label %14, !llvm.loop !12
}

; Function Attrs: argmemonly mustprogress nofree nosync nounwind willreturn
declare void @llvm.lifetime.start.p0i8(i64 immarg, i8* nocapture) #1

; Function Attrs: nofree nounwind
declare noundef i32 @__isoc99_scanf(i8* nocapture noundef readonly, ...) local_unnamed_addr #2

; Function Attrs: mustprogress nofree nounwind willreturn
declare double @sqrt(double) local_unnamed_addr #3

; Function Attrs: nofree nounwind
declare noundef i32 @printf(i8* nocapture noundef readonly, ...) local_unnamed_addr #2

; Function Attrs: argmemonly mustprogress nofree nosync nounwind willreturn
declare void @llvm.lifetime.end.p0i8(i64 immarg, i8* nocapture) #1


!llvm.module.flags = !{!0, !1, !2, !3}
!llvm.ident = !{!4}

!0 = !{i32 1, !"wchar_size", i32 4}
!1 = !{i32 7, !"PIC Level", i32 2}
!2 = !{i32 7, !"PIE Level", i32 2}
!3 = !{i32 7, !"uwtable", i32 1}
!4 = !{!"clang version 13.0.0"}
!5 = !{!6, !6, i64 0}
!6 = !{!"int", !7, i64 0}
!7 = !{!"omnipotent char", !8, i64 0}
!8 = !{!"Simple C/C++ TBAA"}
!9 = !{!10, !10, i64 0}
!10 = !{!"double", !7, i64 0}
!11 = !{!"branch_weights", i32 1, i32 2000}
!12 = distinct !{!12, !13}
!13 = !{!"llvm.loop.mustprogress"}
